; Function Attrs: mustprogress uwtable
define void @_ZNK6casadi10MXFunction9disp_moreERSo(ptr nocapture noundef nonnull readonly align 8 dereferenceable(1450) %0, ptr noundef nonnull align 8 dereferenceable(8) %1) unnamed_addr #3 align 2 personality ptr @__gxx_personality_v0 {
  %3 = alloca %"class.std::__cxx11::basic_string", align 8
  %4 = tail call noundef nonnull align 8 dereferenceable(8) ptr @_ZStlsISt11char_traitsIcEERSt13basic_ostreamIcT_ES5_PKc(ptr noundef nonnull align 8 dereferenceable(8) %1, ptr noundef nonnull @.str.50)
  %5 = getelementptr inbounds i8, ptr %0, i64 1352
  %6 = load ptr, ptr %5, align 8
  %7 = getelementptr inbounds i8, ptr %0, i64 1360
  %8 = load ptr, ptr %7, align 8
  %.not10 = icmp eq ptr %6, %8
  br i1 %.not10, label %._crit_edge, label %.lr.ph

.lr.ph:                                           ; preds = %2, %19
  %.sroa.07.011 = phi ptr [ %20, %19 ], [ %6, %2 ]
  %9 = load ptr, ptr @_ZN6casadi16InterruptHandler16checkInterruptedE, align 8
  %10 = call noundef zeroext i1 %9()
  br i1 %10, label %11, label %_ZN6casadi16InterruptHandler5checkEv.exit

11:                                               ; preds = %.lr.ph
  %12 = load ptr, ptr @_ZN6casadi16InterruptHandler16clearInterruptedE, align 8
  call void %12()
  %13 = call ptr @__cxa_allocate_exception(i64 40) #23
  invoke void @_ZN6casadi26KeyboardInterruptExceptionC2Ev(ptr noundef nonnull align 8 dereferenceable(40) %13)
          to label %14 unwind label %15

14:                                               ; preds = %11
  call void @__cxa_throw(ptr nonnull %13, ptr nonnull @_ZTIN6casadi26KeyboardInterruptExceptionE, ptr nonnull @_ZN6casadi26KeyboardInterruptExceptionD2Ev) #24
  unreachable

common.resume:                                    ; preds = %21, %15
  %common.resume.op = phi { ptr, i32 } [ %16, %15 ], [ %22, %21 ]
  resume { ptr, i32 } %common.resume.op

15:                                               ; preds = %11
  %16 = landingpad { ptr, i32 }
          cleanup
  call void @__cxa_free_exception(ptr %13) #23
  br label %common.resume

_ZN6casadi16InterruptHandler5checkEv.exit:        ; preds = %.lr.ph
  %17 = call noundef nonnull align 8 dereferenceable(8) ptr @_ZNSolsEPFRSoS_E(ptr noundef nonnull align 8 dereferenceable(8) %1, ptr noundef nonnull @_ZSt4endlIcSt11char_traitsIcEERSt13basic_ostreamIT_T0_ES6_)
  call void @_ZNK6casadi10MXFunction5printB5cxx11ERKNS_7MXAlgElE(ptr dead_on_unwind nonnull writable sret(%"class.std::__cxx11::basic_string") align 8 %3, ptr nonnull align 8 poison, ptr noundef nonnull align 8 dereferenceable(64) %.sroa.07.011)
  %18 = invoke noundef nonnull align 8 dereferenceable(8) ptr @_ZStlsIcSt11char_traitsIcESaIcEERSt13basic_ostreamIT_T0_ES7_RKNSt7__cxx1112basic_stringIS4_S5_T1_EE(ptr noundef nonnull align 8 dereferenceable(8) %17, ptr noundef nonnull align 8 dereferenceable(32) %3)
          to label %19 unwind label %21

19:                                               ; preds = %_ZN6casadi16InterruptHandler5checkEv.exit
  call void @_ZNSt7__cxx1112basic_stringIcSt11char_traitsIcESaIcEED1Ev(ptr noundef nonnull align 8 dereferenceable(32) %3) #23
  %20 = getelementptr inbounds i8, ptr %.sroa.07.011, i64 64
  %.not = icmp eq ptr %20, %8
  br i1 %.not, label %._crit_edge, label %.lr.ph

21:                                               ; preds = %_ZN6casadi16InterruptHandler5checkEv.exit
  %22 = landingpad { ptr, i32 }
          cleanup
  call void @_ZNSt7__cxx1112basic_stringIcSt11char_traitsIcESaIcEED1Ev(ptr noundef nonnull align 8 dereferenceable(32) %3) #23
  br label %common.resume

._crit_edge:                                      ; preds = %19, %2
  ret void
}